target datalayout = "e-m:e-p270:32:32-p271:32:32-p272:64:64-i64:64-i128:128-f80:128-n8:16:32:64-S128"
target triple = "x86_64-pc-linux-gnu"

%struct.compressionParameters = type { i32, ptr, i32, ptr, ptr, ptr, ptr, ptr, ptr, ptr, ptr }

; Function Attrs: nounwind uwtable
define internal void @LZ4_compressResetStreamHC(ptr noundef %0) #0 {
  %2 = alloca ptr, align 8
  store ptr %0, ptr %2, align 8, !tbaa !65
  %3 = load ptr, ptr %2, align 8, !tbaa !65
  %4 = getelementptr inbounds nuw %struct.compressionParameters, ptr %3, i32 0, i32 5
  %5 = load ptr, ptr %4, align 8, !tbaa !74
  %6 = load ptr, ptr %2, align 8, !tbaa !65
  %7 = getelementptr inbounds nuw %struct.compressionParameters, ptr %6, i32 0, i32 0
  %8 = load i32, ptr %7, align 8, !tbaa !67
  call void @LZ4_resetStreamHC_fast(ptr noundef %5, i32 noundef %8)
  %9 = load ptr, ptr %2, align 8, !tbaa !65
  %10 = getelementptr inbounds nuw %struct.compressionParameters, ptr %9, i32 0, i32 5
  %11 = load ptr, ptr %10, align 8, !tbaa !74
  %12 = load ptr, ptr %2, align 8, !tbaa !65
  %13 = getelementptr inbounds nuw %struct.compressionParameters, ptr %12, i32 0, i32 6
  %14 = load ptr, ptr %13, align 8, !tbaa !75
  call void @LZ4_attach_HC_dictionary(ptr noundef %11, ptr noundef %14)
  ret void
}