; Function Attrs: nounwind uwtable
define internal void @LZ4_compressResetStreamHC(ptr noundef readonly captures(none) %0) #3 {
  %2 = getelementptr inbounds nuw i8, ptr %0, i64 40
  %3 = load ptr, ptr %2, align 8, !tbaa !65
  %4 = load i32, ptr %0, align 8, !tbaa !23
  tail call void @LZ4_resetStreamHC_fast(ptr noundef %3, i32 noundef %4) #19
  %5 = load ptr, ptr %2, align 8, !tbaa !65
  %6 = getelementptr inbounds nuw i8, ptr %0, i64 48
  %7 = load ptr, ptr %6, align 8, !tbaa !66
  tail call void @LZ4_attach_HC_dictionary(ptr noundef %5, ptr noundef %7) #19
  ret void
}